target datalayout = "e-m:e-p270:32:32-p271:32:32-p272:64:64-i64:64-i128:128-f80:128-n8:16:32:64-S128"
target triple = "x86_64-pc-linux-gnu"

%struct.IDAMemRec = type { double, ptr, ptr, i32, double, double, ptr, i32, ptr, ptr, i32, ptr, ptr, i32, i32, double, double, ptr, i32, i32, i32, ptr, ptr, i32, ptr, ptr, ptr, i32, double, i32, i32, double, ptr, ptr, i32, ptr, ptr, i32, i32, i32, double, ptr, ptr, [6 x ptr], [6 x double], [6 x double], [6 x double], [6 x double], [6 x double], ptr, ptr, ptr, ptr, ptr, ptr, ptr, ptr, ptr, ptr, ptr, ptr, ptr, ptr, ptr, [6 x ptr], ptr, ptr, ptr, ptr, [6 x ptr], ptr, ptr, ptr, ptr, ptr, ptr, ptr, ptr, ptr, ptr, ptr, ptr, ptr, ptr, [6 x ptr], ptr, ptr, ptr, ptr, ptr, double, ptr, ptr, i32, i32, i32, i32, i32, i32, i32, double, double, double, i32, double, i32, i32, i32, i32, double, double, double, double, double, double, double, double, double, double, double, double, double, double, i32, i32, i32, i32, i32, i64, double, i32, i64, i64, i64, i64, i64, i64, i64, i64, i64, i64, i64, i64, i64, i64, i64, i64, i64, i64, i64, i64, i64, i64, i64, i64, ptr, ptr, ptr, i32, i32, i32, i32, i32, i32, i32, i32, i32, i32, i32, i32, i32, ptr, ptr, ptr, ptr, ptr, ptr, i32, i32, i32, i32, i32, i32, double, double, double, ptr, i32, ptr, ptr, double, double, double, ptr, ptr, ptr, double, double, i32, i32, i64, ptr, i32, i32, ptr, i32 }
%struct.IBBDPrecDataRec = type { i64, i64, i64, i64, double, ptr, ptr, ptr, ptr, ptr, i64, i64, i64, i64, ptr }
%struct.IDASpilsMemRec = type { i32, i32, double, i32, i32, double, double, double, i64, i64, i64, i64, i64, i64, i64, i64, i64, i64, i64, i64, ptr, ptr, ptr, ptr, ptr, ptr, ptr, i64, ptr, ptr, ptr, ptr, i32, ptr, ptr }

; Function Attrs: nounwind uwtable
define internal void @IDABBDPrecFree(ptr noundef %0) #0 {
  %2 = alloca ptr, align 8
  %3 = alloca ptr, align 8
  %4 = alloca ptr, align 8
  %5 = alloca i32, align 4
  store ptr %0, ptr %2, align 8, !tbaa !11
  call void @llvm.lifetime.start.p0(i64 8, ptr %3) #6
  call void @llvm.lifetime.start.p0(i64 8, ptr %4) #6
  %6 = load ptr, ptr %2, align 8, !tbaa !11
  %7 = getelementptr inbounds nuw %struct.IDAMemRec, ptr %6, i32 0, i32 176
  %8 = load ptr, ptr %7, align 8, !tbaa !13
  %9 = icmp eq ptr %8, null
  br i1 %9, label %10, label %11

10:                                               ; preds = %1
  store i32 1, ptr %5, align 4
  br label %34

11:                                               ; preds = %1
  %12 = load ptr, ptr %2, align 8, !tbaa !11
  %13 = getelementptr inbounds nuw %struct.IDAMemRec, ptr %12, i32 0, i32 176
  %14 = load ptr, ptr %13, align 8, !tbaa !13
  store ptr %14, ptr %3, align 8, !tbaa !22
  %15 = load ptr, ptr %3, align 8, !tbaa !22
  %16 = getelementptr inbounds nuw %struct.IDASpilsMemRec, ptr %15, i32 0, i32 31
  %17 = load ptr, ptr %16, align 8, !tbaa !52
  %18 = icmp eq ptr %17, null
  br i1 %18, label %19, label %20

19:                                               ; preds = %11
  store i32 1, ptr %5, align 4
  br label %34

20:                                               ; preds = %11
  %21 = load ptr, ptr %3, align 8, !tbaa !22
  %22 = getelementptr inbounds nuw %struct.IDASpilsMemRec, ptr %21, i32 0, i32 31
  %23 = load ptr, ptr %22, align 8, !tbaa !52
  store ptr %23, ptr %4, align 8, !tbaa !30
  %24 = load ptr, ptr %4, align 8, !tbaa !30
  %25 = getelementptr inbounds nuw %struct.IBBDPrecDataRec, ptr %24, i32 0, i32 8
  %26 = load ptr, ptr %25, align 8, !tbaa !42
  call void @DestroyMat(ptr noundef %26)
  %27 = load ptr, ptr %4, align 8, !tbaa !30
  %28 = getelementptr inbounds nuw %struct.IBBDPrecDataRec, ptr %27, i32 0, i32 9
  %29 = load ptr, ptr %28, align 8, !tbaa !43
  call void @DestroyArray(ptr noundef %29)
  %30 = load ptr, ptr %4, align 8, !tbaa !30
  %31 = getelementptr inbounds nuw %struct.IBBDPrecDataRec, ptr %30, i32 0, i32 7
  %32 = load ptr, ptr %31, align 8, !tbaa !45
  call void @N_VDestroy(ptr noundef %32)
  %33 = load ptr, ptr %4, align 8, !tbaa !30
  call void @free(ptr noundef %33) #6
  store ptr null, ptr %4, align 8, !tbaa !30
  store i32 0, ptr %5, align 4
  br label %34

34:                                               ; preds = %20, %19, %10
  call void @llvm.lifetime.end.p0(i64 8, ptr %4) #6
  call void @llvm.lifetime.end.p0(i64 8, ptr %3) #6
  %35 = load i32, ptr %5, align 4
  switch i32 %35, label %37 [
    i32 0, label %36
    i32 1, label %36
  ]

36:                                               ; preds = %34, %34
  ret void

37:                                               ; preds = %34
  unreachable
}