; Function Attrs: nounwind uwtable
define internal void @IDABBDPrecFree(ptr noundef readonly captures(none) %0) #0 {
  %2 = getelementptr inbounds nuw i8, ptr %0, i64 1632
  %3 = load ptr, ptr %2, align 8, !tbaa !3
  %4 = icmp eq ptr %3, null
  br i1 %4, label %16, label %5

5:                                                ; preds = %1
  %6 = getelementptr inbounds nuw i8, ptr %3, i64 232
  %7 = load ptr, ptr %6, align 8, !tbaa !42
  %8 = icmp eq ptr %7, null
  br i1 %8, label %16, label %9

9:                                                ; preds = %5
  %10 = getelementptr inbounds nuw i8, ptr %7, i64 64
  %11 = load ptr, ptr %10, align 8, !tbaa !33
  tail call void @DestroyMat(ptr noundef %11) #7
  %12 = getelementptr inbounds nuw i8, ptr %7, i64 72
  %13 = load ptr, ptr %12, align 8, !tbaa !34
  tail call void @DestroyArray(ptr noundef %13) #7
  %14 = getelementptr inbounds nuw i8, ptr %7, i64 56
  %15 = load ptr, ptr %14, align 8, !tbaa !35
  tail call void @N_VDestroy(ptr noundef %15) #7
  tail call void @free(ptr noundef nonnull %7) #7
  br label %16

16:                                               ; preds = %5, %1, %9
  ret void
}